(dp0
Vbrxx
p1
(dp2
V8ga7bs3PAMhHUe7CWD6uP100cr652W/YkcgblSzimAY=
p3
I-1
sViba8XDvHnrnjDhx9b7iamUoTpJ2tiWlnwaZ69jv7Hl8=
p4
(dp5
V8ga7bs3PAMhHUe7CWD6uP100cr652W/YkcgblSzimAY=
p6
I-1
ssV70Zp1+v3dPwKtOKD4U/ibF00cr652W/YkcgblSzimAY=
p7
I-1
ss.(dp0
Vbrxx
p1
(iserver_helper
Inode
p2
(dp3
S'username'
p4
g1
sS'share'
p5
(dp6
sS'sharekey'
p7
NsS'filename'
p8
g1
sS'perm'
p9
I2
sS'sharebit'
p10
I0
sS'type'
p11
I0
sbsVbrxx/70Zp1+v3dPwKtOKD4U/ibF00cr652W/YkcgblSzimAY=
p12
(iserver_helper
Inode
p13
(dp14
g4
Vbrxx
p15
sg5
(dp16
sg7
Nsg8
V70Zp1+v3dPwKtOKD4U/ibF00cr652W/YkcgblSzimAY=
p17
sg9
I2
sg10
I0
sg11
I1
sbsVbrxx/8ga7bs3PAMhHUe7CWD6uP100cr652W/YkcgblSzimAY=
p18
(iserver_helper
Inode
p19
(dp20
g4
Vbrxx
p21
sg5
(dp22
sg7
Nsg8
V8ga7bs3PAMhHUe7CWD6uP100cr652W/YkcgblSzimAY=
p23
sg9
I2
sg10
I0
sg11
I1
sbsVbrxx/iba8XDvHnrnjDhx9b7iamUoTpJ2tiWlnwaZ69jv7Hl8=/8ga7bs3PAMhHUe7CWD6uP100cr652W/YkcgblSzimAY=
p24
(iserver_helper
Inode
p25
(dp26
g4
Vbrxx
p27
sg5
(dp28
sg7
Nsg8
V8ga7bs3PAMhHUe7CWD6uP100cr652W/YkcgblSzimAY=
p29
sg9
I2
sg10
I0
sg11
I1
sbsVbrxx/iba8XDvHnrnjDhx9b7iamUoTpJ2tiWlnwaZ69jv7Hl8=
p30
(iserver_helper
Inode
p31
(dp32
g4
Vbrxx
p33
sg5
(dp34
sg7
Nsg8
Viba8XDvHnrnjDhx9b7iamUoTpJ2tiWlnwaZ69jv7Hl8=
p35
sg9
I2
sg10
I0
sg11
I0
sbs.