(dp0
Vbrxx
p1
(dp2
VE+5y77ONRm9gUpm0BBNRnlwPfxIkZYFD9KymxdpihxQ=
p3
(dp4
sVhr1Bw3oca+CXWumLEl0c0Gobna3cVueu4m0O7hkO/G4=
p5
I-1
sV7u6iLDPRW5pmzbO7HoX9pOPxql/Fga/tBccfBMVJ9YM=
p6
(dp7
Vhr1Bw3oca+CXWumLEl0c0Gobna3cVueu4m0O7hkO/G4=
p8
I-1
ssV9X5AEk7sIbnOQMhsjNNiiGobna3cVueu4m0O7hkO/G4=
p9
I-1
sViba8XDvHnrnjDhx9b7iamUoTpJ2tiWlnwaZ69jv7Hl8=
p10
(dp11
V9X5AEk7sIbnOQMhsjNNiiGobna3cVueu4m0O7hkO/G4=
p12
I-1
ssVNF1fRr9x8SQA0Ot/bkvFz+Pxql/Fga/tBccfBMVJ9YM=
p13
(dp14
g12
I-1
sVhr1Bw3oca+CXWumLEl0c0Gobna3cVueu4m0O7hkO/G4=
p15
I-1
sss.(dp0
Vbrxx/9X5AEk7sIbnOQMhsjNNiiGobna3cVueu4m0O7hkO/G4=
p1
(iserver_helper
Inode
p2
(dp3
S'username'
p4
Vbrxx
p5
sS'share'
p6
(dp7
sS'sharekey'
p8
NsS'filename'
p9
V9X5AEk7sIbnOQMhsjNNiiGobna3cVueu4m0O7hkO/G4=
p10
sS'perm'
p11
I2
sS'sharebit'
p12
I0
sS'type'
p13
I1
sbsVbrxx/iba8XDvHnrnjDhx9b7iamUoTpJ2tiWlnwaZ69jv7Hl8=
p14
(iserver_helper
Inode
p15
(dp16
g4
Vbrxx
p17
sg6
(dp18
sg8
Nsg9
Viba8XDvHnrnjDhx9b7iamUoTpJ2tiWlnwaZ69jv7Hl8=
p19
sg11
I2
sg12
I0
sg13
I0
sbsVbrxx/NF1fRr9x8SQA0Ot/bkvFz+Pxql/Fga/tBccfBMVJ9YM=
p20
(iserver_helper
Inode
p21
(dp22
g4
g17
sg6
(dp23
sg8
Nsg9
VNF1fRr9x8SQA0Ot/bkvFz+Pxql/Fga/tBccfBMVJ9YM=
p24
sg11
I2
sg12
I0
sg13
I0
sbsVbrxx/NF1fRr9x8SQA0Ot/bkvFz+Pxql/Fga/tBccfBMVJ9YM=/hr1Bw3oca+CXWumLEl0c0Gobna3cVueu4m0O7hkO/G4=
p25
(iserver_helper
Inode
p26
(dp27
g4
Vbrxx
p28
sg8
Nsg13
I1
sg12
I0
sg6
(dp29
sg11
I2
sg9
Vhr1Bw3oca+CXWumLEl0c0Gobna3cVueu4m0O7hkO/G4=
p30
sbsg5
(iserver_helper
Inode
p31
(dp32
g4
g5
sg6
(dp33
sg8
Nsg9
g5
sg11
I2
sg12
I0
sg13
I0
sbsVbrxx/hr1Bw3oca+CXWumLEl0c0Gobna3cVueu4m0O7hkO/G4=
p34
(iserver_helper
Inode
p35
(dp36
g4
g28
sg6
(dp37
sg8
Nsg9
g30
sg11
I2
sg12
I0
sg13
I1
sbsVbrxx/7u6iLDPRW5pmzbO7HoX9pOPxql/Fga/tBccfBMVJ9YM=/hr1Bw3oca+CXWumLEl0c0Gobna3cVueu4m0O7hkO/G4=
p38
(iserver_helper
Inode
p39
(dp40
g4
g28
sg6
(dp41
sg8
Nsg9
g30
sg11
I2
sg12
I0
sg13
I1
sbsVbrxx/NF1fRr9x8SQA0Ot/bkvFz+Pxql/Fga/tBccfBMVJ9YM=/9X5AEk7sIbnOQMhsjNNiiGobna3cVueu4m0O7hkO/G4=
p42
(iserver_helper
Inode
p43
(dp44
g4
g5
sg6
(dp45
sg8
Nsg9
g10
sg11
I2
sg12
I0
sg13
I1
sbsVbrxx/iba8XDvHnrnjDhx9b7iamUoTpJ2tiWlnwaZ69jv7Hl8=/9X5AEk7sIbnOQMhsjNNiiGobna3cVueu4m0O7hkO/G4=
p46
(iserver_helper
Inode
p47
(dp48
g4
g5
sg6
(dp49
sg8
Nsg9
g10
sg11
I2
sg12
I0
sg13
I1
sbsVbrxx/E+5y77ONRm9gUpm0BBNRnlwPfxIkZYFD9KymxdpihxQ=
p50
(iserver_helper
Inode
p51
(dp52
g4
g17
sg6
(dp53
sg8
Nsg9
VE+5y77ONRm9gUpm0BBNRnlwPfxIkZYFD9KymxdpihxQ=
p54
sg11
I2
sg12
I0
sg13
I0
sbs.