(dp0
Vbrxx
p1
(dp2
VSypQ0uDluw9p7GvkJB/MSlyH3y46j9dtYM1y0t/J3uQ=
p3
I-1
sVGceJpk+B8YeC6MMW1V/QXDe0sTjppvRzh8Ody7Jbfzo=
p4
I-1
sVlMZk037sYpZscaN91EsE31yH3y46j9dtYM1y0t/J3uQ=
p5
I-1
sVJTqdrHosZ/KkiG6Sg+IL31wvyorMlEMP0YD8NNzWVAg=
p6
(dp7
VlMZk037sYpZscaN91EsE31yH3y46j9dtYM1y0t/J3uQ=
p8
I-1
sss.(dp0
Vbrxx/SypQ0uDluw9p7GvkJB/MSlyH3y46j9dtYM1y0t/J3uQ=
p1
(iserver_helper
Inode
p2
(dp3
S'username'
p4
Vbrxx
p5
sS'share'
p6
(dp7
sS'sharekey'
p8
NsS'filename'
p9
VSypQ0uDluw9p7GvkJB/MSlyH3y46j9dtYM1y0t/J3uQ=
p10
sS'perm'
p11
I2
sS'sharebit'
p12
I0
sS'type'
p13
I1
sbsVbrxx/JTqdrHosZ/KkiG6Sg+IL31wvyorMlEMP0YD8NNzWVAg=
p14
(iserver_helper
Inode
p15
(dp16
g4
Vbrxx
p17
sg6
(dp18
sg8
Nsg9
VJTqdrHosZ/KkiG6Sg+IL31wvyorMlEMP0YD8NNzWVAg=
p19
sg11
I2
sg12
I0
sg13
I0
sbsVbrxx/lMZk037sYpZscaN91EsE31yH3y46j9dtYM1y0t/J3uQ=
p20
(iserver_helper
Inode
p21
(dp22
g4
Vbrxx
p23
sg6
(dp24
sg8
Nsg9
VlMZk037sYpZscaN91EsE31yH3y46j9dtYM1y0t/J3uQ=
p25
sg11
I2
sg12
I0
sg13
I1
sbsg5
(iserver_helper
Inode
p26
(dp27
g4
g5
sg6
(dp28
sg8
Nsg9
g5
sg11
I2
sg12
I0
sg13
I0
sbsVbrxx/GceJpk+B8YeC6MMW1V/QXDe0sTjppvRzh8Ody7Jbfzo=
p29
(iserver_helper
Inode
p30
(dp31
g4
g23
sg6
(dp32
sg8
Nsg9
VGceJpk+B8YeC6MMW1V/QXDe0sTjppvRzh8Ody7Jbfzo=
p33
sg11
I2
sg12
I0
sg13
I1
sbsVbrxx/JTqdrHosZ/KkiG6Sg+IL31wvyorMlEMP0YD8NNzWVAg=/lMZk037sYpZscaN91EsE31yH3y46j9dtYM1y0t/J3uQ=
p34
(iserver_helper
Inode
p35
(dp36
g4
g23
sg6
(dp37
sg8
Nsg9
g25
sg11
I2
sg12
I0
sg13
I1
sbs.