(dp0
Vbrxx
p1
(dp2
S'USER_PK'
p3
(iCrypto.PublicKey.RSA
_RSAobj
p4
(dp6
S'e'
p7
L65537L
sS'n'
p8
L23773434394531866105344710976917827531187846175752079197746394284971267926529977788818512848590113688972411356628470867435496211552105924966021223144692568862487168518149814766055273358662763515166849974768688967336555859995317523947074988773644445826070648581365514011589187720252786312568202518857867906934971193430447774218714199883984189951413570830164325101484065954053279148674661896747101435300021265831313347910701149188383877395381674489146313376297083159534858720938541800544817795762283149393273448182938334469710799684364277305131972189997720530888332365841117341453073162776836871145109266095733527575571L
sbsS'password'
p9
V123
p10
ssVwww
p11
(dp12
S'USER_PK'
p13
(iCrypto.PublicKey.RSA
_RSAobj
p14
(dp15
g7
L65537L
sg8
L24295253711941791046711708890602448836587448858430065763129298519646594338320756173407341101135073762961043852044506825617663297944254832799279063912218817886435813360869545047555995761751194883092933757787145528361214359008389904320425421659360841272437274310013991720544846563720907525575318951420604556044511413172300616809775556558536489177930150040714802083993451464473166651456578555603714946014533719348979576248132429336739019635756083476532264036604347374184755035754535227694566511426286635633925126462372901299009963662913961557998811479312186577321543643994398123483713124143745219224031371123426899483857L
sbsS'password'
p16
V123
p17
ss.