(dp0
Vbrxx
p1
(dp2
S'USER_PK'
p3
(iCrypto.PublicKey.RSA
_RSAobj
p4
(dp6
S'e'
p7
L65537L
sS'n'
p8
L17713555742495348873289830740646578353864967049372182395097705277442045997971902848989889966029280585774546413276131204529793768242440869102878312796154319188080418177401861484950374824066441075037844300795053413761726860009006102417412814512567812497784910746332006282038881564344365417190120039261502356796268612563085497668103492059224188991707407961322948520907618149928942527351836219132370290111944038507323074348582850049071090715065664738976251592876538551925336676261245377317967810069719289639575378047166842908406293368884993360666192729921206041953856603293231641324908457179646057627517802271971781976549L
sbsS'password'
p9
V122
p10
ss.