(dp0
Vbrxx
p1
(dp2
S'USER_PK'
p3
(iCrypto.PublicKey.RSA
_RSAobj
p4
(dp6
S'e'
p7
L65537L
sS'n'
p8
L23181352997024059800183724972545023153058787195640681300863258135664839351946278201689954991439573591760398001576095991164564665035764845246556900094796786354361586348171710677435767676263287995209944958978368110761050208129148285744808886870401200036000300346599218412590968771019406765504820667665649266728491094434844203142727984212470464239875131855134671484473518588602045962305312601388561757366911135395737090777688483550885551508466222176889819674263562235331514293807292017204726523184567034959066955312571818163634891210929506180396123932760693870954673584407638558796416382572042194584325992970350330383517L
sbsS'password'
p9
V122
p10
ss.