(dp0
Vbrxx
p1
(dp2
S'USER_PK'
p3
(iCrypto.PublicKey.RSA
_RSAobj
p4
(dp6
S'e'
p7
L65537L
sS'n'
p8
L22506835929734671489529814250416002424790706930950323380766871317309635081524263010940429894281413387359022681829589941601094128402273383316242956996748618429750414173855012901366247610068906612650223222327015592822343312752671604319305716122736003125299875063826215353087772517397332300049031994032601272248085065499355433578165224304439450227130593063639194061615210553173088515553423794884156133506891795278559502293127361574958474747299136717933462307989069227578198199091763528096581879119732913239306614382271498245282074219580941020921526219120432026247678544644527239782799670313817535886160398669674142206287L
sbsS'password'
p9
V122
p10
ssVtest
p11
(dp12
S'USER_PK'
p13
(iCrypto.PublicKey.RSA
_RSAobj
p14
(dp15
g7
L65537L
sg8
L26940765168257636410810718793440024654947194021036514764292734916455327927015164806384628682220906738055838206580725518979566551722616297837166752129152236570290002124905322312880551717697805678201191759943838254189462115711619570280370275718147033467047342105101026923477559751355929119148270482521954288358517537917715808298305158369952725307928616889459593114971269197055731186137003173719298211618532803201965796790204079356559824251438953240310622831238090490548148203409919179997742149074929277143896394713927022526801882559622696653054493806811198705351939298767225992797880794220228983269602979047045564204151L
sbsS'password'
p16
V111
p17
ss.